; Function Attrs: mustprogress uwtable
define void @_ZN6colvar12alch_Flambda11apply_forceERK11colvarvalue(ptr nonnull readnone align 8 captures(none) %0, ptr noundef nonnull readonly align 8 captures(none) dereferenceable(168) %1) unnamed_addr #2 align 2 {
  %3 = alloca double, align 8
  %4 = alloca double, align 8
  call void @llvm.lifetime.start.p0(i64 8, ptr nonnull %3) #12
  %5 = getelementptr inbounds nuw i8, ptr %1, i64 8
  %6 = load double, ptr %5, align 8, !tbaa !91
  %7 = fneg double %6
  store double %7, ptr %3, align 8, !tbaa !92
  %8 = load ptr, ptr @_ZN12colvarmodule5proxyE, align 8, !tbaa !4
  %9 = load ptr, ptr %8, align 8, !tbaa !9
  %10 = getelementptr inbounds nuw i8, ptr %9, i64 120
  %11 = load ptr, ptr %10, align 8
  %12 = call noundef i32 %11(ptr noundef nonnull align 8 dereferenceable(256) %8, ptr noundef nonnull %3)
  call void @llvm.lifetime.start.p0(i64 8, ptr nonnull %4) #12
  %13 = load ptr, ptr @_ZN12colvarmodule5proxyE, align 8, !tbaa !4
  %14 = load ptr, ptr %13, align 8, !tbaa !9
  %15 = getelementptr inbounds nuw i8, ptr %14, i64 128
  %16 = load ptr, ptr %15, align 8
  %17 = call noundef i32 %16(ptr noundef nonnull align 8 dereferenceable(256) %13, ptr noundef nonnull %4)
  %18 = load double, ptr %4, align 8, !tbaa !92
  %19 = load double, ptr %3, align 8, !tbaa !92
  %20 = load ptr, ptr @_ZN12colvarmodule5proxyE, align 8, !tbaa !4
  %21 = getelementptr inbounds nuw i8, ptr %20, i64 40
  %22 = load double, ptr %21, align 8, !tbaa !87
  %23 = call double @llvm.fmuladd.f64(double %18, double %19, double %22)
  store double %23, ptr %21, align 8, !tbaa !87
  call void @llvm.lifetime.end.p0(i64 8, ptr nonnull %4) #12
  call void @llvm.lifetime.end.p0(i64 8, ptr nonnull %3) #12
  ret void
}